target datalayout = "e-m:e-p270:32:32-p271:32:32-p272:64:64-i64:64-i128:128-f80:128-n8:16:32:64-S128"
target triple = "x86_64-pc-linux-gnu"

%struct.Aig_Obj_t_ = type { %union.anon, ptr, ptr, i64, i32, i32, %union.anon.0 }
%union.anon = type { ptr }
%union.anon.0 = type { ptr }
%struct.Fra_Man_t_ = type { ptr, ptr, ptr, i32, ptr, i32, ptr, ptr, ptr, i32, ptr, ptr, ptr, ptr, i32, ptr, i64, i64, ptr, ptr, i32, ptr, i32, i32, i32, i32, i32, i32, i32, i32, i32, i32, i32, i32, i32, i32, i32, i32, i32, i32, i32, i64, i64, i64, i64, i64, i64, i64, i64, i64, i64, i64 }
%struct.Fra_Sml_t_ = type { ptr, i32, i32, i32, i32, i32, i32, i32, i32, [0 x i32] }
%struct.Aig_Man_t_ = type { ptr, ptr, ptr, ptr, ptr, ptr, ptr, %struct.Aig_Obj_t_, i32, i32, i32, i32, i32, i32, [7 x i32], i32, ptr, i32, ptr, i32, ptr, i32, i32, i32, ptr, i32, i32, i32, i32, i32, ptr, ptr, i32, ptr, ptr, i32, ptr, ptr, i32, i32, i32, ptr, ptr, ptr, ptr, ptr, ptr, ptr, ptr, ptr, ptr, ptr, ptr, ptr, ptr, i32, ptr, ptr, ptr, ptr, i32, i64, i64, i64, ptr, ptr }
%struct.Vec_Ptr_t_ = type { i32, i32, ptr }

; Function Attrs: inlinehint nounwind uwtable
define internal ptr @Aig_Regular(ptr noundef %0) #2 {
  %2 = alloca ptr, align 8
  store ptr %0, ptr %2, align 8, !tbaa !3
  %3 = load ptr, ptr %2, align 8, !tbaa !3
  %4 = ptrtoint ptr %3 to i64
  %5 = and i64 %4, -2
  %6 = inttoptr i64 %5 to ptr
  ret ptr %6
}

; Function Attrs: inlinehint nounwind uwtable
define internal i32 @Abc_InfoHasBit(ptr noundef %0, i32 noundef %1) #2 {
  %3 = alloca ptr, align 8
  %4 = alloca i32, align 4
  store ptr %0, ptr %3, align 8, !tbaa !29
  store i32 %1, ptr %4, align 4, !tbaa !8
  %5 = load ptr, ptr %3, align 8, !tbaa !29
  %6 = load i32, ptr %4, align 4, !tbaa !8
  %7 = ashr i32 %6, 5
  %8 = sext i32 %7 to i64
  %9 = getelementptr inbounds i32, ptr %5, i64 %8
  %10 = load i32, ptr %9, align 4, !tbaa !8
  %11 = load i32, ptr %4, align 4, !tbaa !8
  %12 = and i32 %11, 31
  %13 = shl i32 1, %12
  %14 = and i32 %10, %13
  %15 = icmp ugt i32 %14, 0
  %16 = zext i1 %15 to i32
  ret i32 %16
}

; Function Attrs: inlinehint nounwind uwtable
define internal ptr @Vec_PtrEntry(ptr noundef %0, i32 noundef %1) #2 {
  %3 = alloca ptr, align 8
  %4 = alloca i32, align 4
  store ptr %0, ptr %3, align 8, !tbaa !54
  store i32 %1, ptr %4, align 4, !tbaa !8
  %5 = load ptr, ptr %3, align 8, !tbaa !54
  %6 = getelementptr inbounds nuw %struct.Vec_Ptr_t_, ptr %5, i32 0, i32 2
  %7 = load ptr, ptr %6, align 8, !tbaa !57
  %8 = load i32, ptr %4, align 4, !tbaa !8
  %9 = sext i32 %8 to i64
  %10 = getelementptr inbounds ptr, ptr %7, i64 %9
  %11 = load ptr, ptr %10, align 8, !tbaa !58
  ret ptr %11
}

; Function Attrs: inlinehint nounwind uwtable
define internal i32 @Vec_PtrSize(ptr noundef %0) #2 {
  %2 = alloca ptr, align 8
  store ptr %0, ptr %2, align 8, !tbaa !54
  %3 = load ptr, ptr %2, align 8, !tbaa !54
  %4 = getelementptr inbounds nuw %struct.Vec_Ptr_t_, ptr %3, i32 0, i32 1
  %5 = load i32, ptr %4, align 4, !tbaa !55
  ret i32 %5
}

; Function Attrs: inlinehint nounwind uwtable
define internal i32 @Aig_ManCiNum(ptr noundef %0) #2 {
  %2 = alloca ptr, align 8
  store ptr %0, ptr %2, align 8, !tbaa !52
  %3 = load ptr, ptr %2, align 8, !tbaa !52
  %4 = getelementptr inbounds nuw %struct.Aig_Man_t_, ptr %3, i32 0, i32 14
  %5 = getelementptr inbounds [7 x i32], ptr %4, i64 0, i64 2
  %6 = load i32, ptr %5, align 8, !tbaa !8
  ret i32 %6
}

; Function Attrs: inlinehint nounwind uwtable
define internal ptr @Fra_ObjSim(ptr noundef %0, i32 noundef %1) #2 {
  %3 = alloca ptr, align 8
  %4 = alloca i32, align 4
  store ptr %0, ptr %3, align 8, !tbaa !35
  store i32 %1, ptr %4, align 4, !tbaa !8
  %5 = load ptr, ptr %3, align 8, !tbaa !35
  %6 = getelementptr inbounds nuw %struct.Fra_Sml_t_, ptr %5, i32 0, i32 9
  %7 = getelementptr inbounds [0 x i32], ptr %6, i64 0, i64 0
  %8 = load ptr, ptr %3, align 8, !tbaa !35
  %9 = getelementptr inbounds nuw %struct.Fra_Sml_t_, ptr %8, i32 0, i32 4
  %10 = load i32, ptr %9, align 4, !tbaa !32
  %11 = load i32, ptr %4, align 4, !tbaa !8
  %12 = mul nsw i32 %10, %11
  %13 = sext i32 %12 to i64
  %14 = getelementptr inbounds i32, ptr %7, i64 %13
  ret ptr %14
}

; Function Attrs: inlinehint nounwind uwtable
define internal ptr @Aig_ObjFanin0(ptr noundef %0) #2 {
  %2 = alloca ptr, align 8
  store ptr %0, ptr %2, align 8, !tbaa !3
  %3 = load ptr, ptr %2, align 8, !tbaa !3
  %4 = getelementptr inbounds nuw %struct.Aig_Obj_t_, ptr %3, i32 0, i32 1
  %5 = load ptr, ptr %4, align 8, !tbaa !88
  %6 = call ptr @Aig_Regular(ptr noundef %5)
  ret ptr %6
}

; Function Attrs: nounwind uwtable
define void @Fra_SmlCheckOutputSavePattern(ptr noundef %0, ptr noundef %1) #0 {
  %3 = alloca ptr, align 8
  %4 = alloca ptr, align 8
  %5 = alloca ptr, align 8
  %6 = alloca ptr, align 8
  %7 = alloca ptr, align 8
  %8 = alloca i32, align 4
  %9 = alloca i32, align 4
  %10 = alloca i32, align 4
  %11 = alloca ptr, align 8
  store ptr %0, ptr %3, align 8, !tbaa !11
  store ptr %1, ptr %4, align 8, !tbaa !3
  call void @llvm.lifetime.start.p0(i64 8, ptr %5) #8
  call void @llvm.lifetime.start.p0(i64 8, ptr %6) #8
  call void @llvm.lifetime.start.p0(i64 8, ptr %7) #8
  call void @llvm.lifetime.start.p0(i64 4, ptr %8) #8
  call void @llvm.lifetime.start.p0(i64 4, ptr %9) #8
  call void @llvm.lifetime.start.p0(i64 4, ptr %10) #8
  call void @llvm.lifetime.start.p0(i64 8, ptr %11) #8
  %12 = load ptr, ptr %4, align 8, !tbaa !3
  %13 = call ptr @Aig_ObjFanin0(ptr noundef %12)
  store ptr %13, ptr %5, align 8, !tbaa !3
  %14 = load ptr, ptr %3, align 8, !tbaa !11
  %15 = getelementptr inbounds nuw %struct.Fra_Man_t_, ptr %14, i32 0, i32 7
  %16 = load ptr, ptr %15, align 8, !tbaa !13
  %17 = load ptr, ptr %5, align 8, !tbaa !3
  %18 = getelementptr inbounds nuw %struct.Aig_Obj_t_, ptr %17, i32 0, i32 5
  %19 = load i32, ptr %18, align 4, !tbaa !27
  %20 = call ptr @Fra_ObjSim(ptr noundef %16, i32 noundef %19)
  store ptr %20, ptr %7, align 8, !tbaa !29
  store i32 0, ptr %8, align 4, !tbaa !8
  br label %21

21:                                               ; preds = %38, %2
  %22 = load i32, ptr %8, align 4, !tbaa !8
  %23 = load ptr, ptr %3, align 8, !tbaa !11
  %24 = getelementptr inbounds nuw %struct.Fra_Man_t_, ptr %23, i32 0, i32 7
  %25 = load ptr, ptr %24, align 8, !tbaa !13
  %26 = getelementptr inbounds nuw %struct.Fra_Sml_t_, ptr %25, i32 0, i32 4
  %27 = load i32, ptr %26, align 4, !tbaa !32
  %28 = icmp slt i32 %22, %27
  br i1 %28, label %29, label %41

29:                                               ; preds = %21
  %30 = load ptr, ptr %7, align 8, !tbaa !29
  %31 = load i32, ptr %8, align 4, !tbaa !8
  %32 = sext i32 %31 to i64
  %33 = getelementptr inbounds i32, ptr %30, i64 %32
  %34 = load i32, ptr %33, align 4, !tbaa !8
  %35 = icmp ne i32 %34, 0
  br i1 %35, label %36, label %37

36:                                               ; preds = %29
  br label %41

37:                                               ; preds = %29
  br label %38

38:                                               ; preds = %37
  %39 = load i32, ptr %8, align 4, !tbaa !8
  %40 = add nsw i32 %39, 1
  store i32 %40, ptr %8, align 4, !tbaa !8
  br label %21, !llvm.loop !84

41:                                               ; preds = %36, %21
  store i32 0, ptr %9, align 4, !tbaa !8
  br label %42

42:                                               ; preds = %57, %41
  %43 = load i32, ptr %9, align 4, !tbaa !8
  %44 = icmp slt i32 %43, 32
  br i1 %44, label %45, label %60

45:                                               ; preds = %42
  %46 = load ptr, ptr %7, align 8, !tbaa !29
  %47 = load i32, ptr %8, align 4, !tbaa !8
  %48 = sext i32 %47 to i64
  %49 = getelementptr inbounds i32, ptr %46, i64 %48
  %50 = load i32, ptr %49, align 4, !tbaa !8
  %51 = load i32, ptr %9, align 4, !tbaa !8
  %52 = shl i32 1, %51
  %53 = and i32 %50, %52
  %54 = icmp ne i32 %53, 0
  br i1 %54, label %55, label %56

55:                                               ; preds = %45
  br label %60

56:                                               ; preds = %45
  br label %57

57:                                               ; preds = %56
  %58 = load i32, ptr %9, align 4, !tbaa !8
  %59 = add nsw i32 %58, 1
  store i32 %59, ptr %9, align 4, !tbaa !8
  br label %42, !llvm.loop !85

60:                                               ; preds = %55, %42
  %61 = load i32, ptr %8, align 4, !tbaa !8
  %62 = mul nsw i32 %61, 32
  %63 = load i32, ptr %9, align 4, !tbaa !8
  %64 = add nsw i32 %62, %63
  store i32 %64, ptr %10, align 4, !tbaa !8
  %65 = load ptr, ptr %3, align 8, !tbaa !11
  %66 = getelementptr inbounds nuw %struct.Fra_Man_t_, ptr %65, i32 0, i32 2
  %67 = load ptr, ptr %66, align 8, !tbaa !59
  %68 = call i32 @Aig_ManCiNum(ptr noundef %67)
  %69 = add nsw i32 %68, 1
  %70 = sext i32 %69 to i64
  %71 = mul i64 4, %70
  %72 = call noalias ptr @malloc(i64 noundef %71) #9
  store ptr %72, ptr %11, align 8, !tbaa !29
  store i32 0, ptr %8, align 4, !tbaa !8
  br label %73

73:                                               ; preds = %106, %60
  %74 = load i32, ptr %8, align 4, !tbaa !8
  %75 = load ptr, ptr %3, align 8, !tbaa !11
  %76 = getelementptr inbounds nuw %struct.Fra_Man_t_, ptr %75, i32 0, i32 1
  %77 = load ptr, ptr %76, align 8, !tbaa !43
  %78 = getelementptr inbounds nuw %struct.Aig_Man_t_, ptr %77, i32 0, i32 2
  %79 = load ptr, ptr %78, align 8, !tbaa !44
  %80 = call i32 @Vec_PtrSize(ptr noundef %79)
  %81 = icmp slt i32 %74, %80
  br i1 %81, label %82, label %90

82:                                               ; preds = %73
  %83 = load ptr, ptr %3, align 8, !tbaa !11
  %84 = getelementptr inbounds nuw %struct.Fra_Man_t_, ptr %83, i32 0, i32 1
  %85 = load ptr, ptr %84, align 8, !tbaa !43
  %86 = getelementptr inbounds nuw %struct.Aig_Man_t_, ptr %85, i32 0, i32 2
  %87 = load ptr, ptr %86, align 8, !tbaa !44
  %88 = load i32, ptr %8, align 4, !tbaa !8
  %89 = call ptr @Vec_PtrEntry(ptr noundef %87, i32 noundef %88)
  store ptr %89, ptr %6, align 8, !tbaa !3
  br label %90

90:                                               ; preds = %82, %73
  %91 = phi i1 [ false, %73 ], [ true, %82 ]
  br i1 %91, label %92, label %109

92:                                               ; preds = %90
  %93 = load ptr, ptr %3, align 8, !tbaa !11
  %94 = getelementptr inbounds nuw %struct.Fra_Man_t_, ptr %93, i32 0, i32 7
  %95 = load ptr, ptr %94, align 8, !tbaa !13
  %96 = load ptr, ptr %6, align 8, !tbaa !3
  %97 = getelementptr inbounds nuw %struct.Aig_Obj_t_, ptr %96, i32 0, i32 5
  %98 = load i32, ptr %97, align 4, !tbaa !27
  %99 = call ptr @Fra_ObjSim(ptr noundef %95, i32 noundef %98)
  %100 = load i32, ptr %10, align 4, !tbaa !8
  %101 = call i32 @Abc_InfoHasBit(ptr noundef %99, i32 noundef %100)
  %102 = load ptr, ptr %11, align 8, !tbaa !29
  %103 = load i32, ptr %8, align 4, !tbaa !8
  %104 = sext i32 %103 to i64
  %105 = getelementptr inbounds i32, ptr %102, i64 %104
  store i32 %101, ptr %105, align 4, !tbaa !8
  br label %106

106:                                              ; preds = %92
  %107 = load i32, ptr %8, align 4, !tbaa !8
  %108 = add nsw i32 %107, 1
  store i32 %108, ptr %8, align 4, !tbaa !8
  br label %73, !llvm.loop !86

109:                                              ; preds = %90
  %110 = load ptr, ptr %4, align 8, !tbaa !3
  %111 = getelementptr inbounds nuw %struct.Aig_Obj_t_, ptr %110, i32 0, i32 5
  %112 = load i32, ptr %111, align 4, !tbaa !27
  %113 = load ptr, ptr %11, align 8, !tbaa !29
  %114 = load ptr, ptr %3, align 8, !tbaa !11
  %115 = getelementptr inbounds nuw %struct.Fra_Man_t_, ptr %114, i32 0, i32 1
  %116 = load ptr, ptr %115, align 8, !tbaa !43
  %117 = call i32 @Aig_ManCiNum(ptr noundef %116)
  %118 = sext i32 %117 to i64
  %119 = getelementptr inbounds i32, ptr %113, i64 %118
  store i32 %112, ptr %119, align 4, !tbaa !8
  %120 = load ptr, ptr %11, align 8, !tbaa !29
  %121 = load ptr, ptr %3, align 8, !tbaa !11
  %122 = getelementptr inbounds nuw %struct.Fra_Man_t_, ptr %121, i32 0, i32 2
  %123 = load ptr, ptr %122, align 8, !tbaa !59
  %124 = getelementptr inbounds nuw %struct.Aig_Man_t_, ptr %123, i32 0, i32 36
  store ptr %120, ptr %124, align 8, !tbaa !87
  call void @llvm.lifetime.end.p0(i64 8, ptr %11) #8
  call void @llvm.lifetime.end.p0(i64 4, ptr %10) #8
  call void @llvm.lifetime.end.p0(i64 4, ptr %9) #8
  call void @llvm.lifetime.end.p0(i64 4, ptr %8) #8
  call void @llvm.lifetime.end.p0(i64 8, ptr %7) #8
  call void @llvm.lifetime.end.p0(i64 8, ptr %6) #8
  call void @llvm.lifetime.end.p0(i64 8, ptr %5) #8
  ret void
}