; Function Attrs: nofree nounwind uwtable
define void @Fra_SmlCheckOutputSavePattern(ptr noundef readonly captures(none) %0, ptr noundef readonly captures(none) %1) local_unnamed_addr #7 {
  %3 = getelementptr i8, ptr %1, i64 8
  %.val35 = load ptr, ptr %3, align 8, !tbaa !75
  %4 = ptrtoint ptr %.val35 to i64
  %5 = and i64 %4, -2
  %6 = inttoptr i64 %5 to ptr
  %7 = getelementptr inbounds nuw i8, ptr %0, i64 56
  %8 = load ptr, ptr %7, align 8, !tbaa !6
  %9 = getelementptr inbounds nuw i8, ptr %6, i64 36
  %10 = load i32, ptr %9, align 4, !tbaa !22
  %11 = getelementptr inbounds nuw i8, ptr %8, i64 40
  %12 = getelementptr inbounds nuw i8, ptr %8, i64 20
  %13 = load i32, ptr %12, align 4, !tbaa !25
  %14 = mul nsw i32 %13, %10
  %15 = sext i32 %14 to i64
  %16 = getelementptr inbounds i32, ptr %11, i64 %15
  %17 = icmp sgt i32 %13, 0
  br i1 %17, label %.lr.ph.preheader, label %._crit_edge

.lr.ph.preheader:                                 ; preds = %2
  %wide.trip.count = zext nneg i32 %13 to i64
  br label %.lr.ph

.lr.ph:                                           ; preds = %.lr.ph.preheader, %20
  %indvars.iv = phi i64 [ 0, %.lr.ph.preheader ], [ %indvars.iv.next, %20 ]
  %18 = getelementptr inbounds nuw i32, ptr %16, i64 %indvars.iv
  %19 = load i32, ptr %18, align 4, !tbaa !28
  %.not = icmp eq i32 %19, 0
  br i1 %.not, label %20, label %._crit_edge.loopexit.split.loop.exit

20:                                               ; preds = %.lr.ph
  %indvars.iv.next = add nuw nsw i64 %indvars.iv, 1
  %exitcond.not = icmp eq i64 %indvars.iv.next, %wide.trip.count
  br i1 %exitcond.not, label %._crit_edge, label %.lr.ph, !llvm.loop !76

._crit_edge.loopexit.split.loop.exit:             ; preds = %.lr.ph
  %21 = trunc nuw nsw i64 %indvars.iv to i32
  br label %._crit_edge

._crit_edge:                                      ; preds = %20, %._crit_edge.loopexit.split.loop.exit, %2
  %.0.lcssa = phi i32 [ 0, %2 ], [ %21, %._crit_edge.loopexit.split.loop.exit ], [ %13, %20 ]
  %22 = zext nneg i32 %.0.lcssa to i64
  %23 = getelementptr inbounds nuw i32, ptr %16, i64 %22
  %24 = load i32, ptr %23, align 4, !tbaa !28
  br label %25

25:                                               ; preds = %._crit_edge, %28
  %.03039 = phi i32 [ 0, %._crit_edge ], [ %29, %28 ]
  %26 = shl nuw i32 1, %.03039
  %27 = and i32 %24, %26
  %.not31 = icmp eq i32 %27, 0
  br i1 %.not31, label %28, label %30

28:                                               ; preds = %25
  %29 = add nuw nsw i32 %.03039, 1
  %exitcond46.not = icmp eq i32 %29, 32
  br i1 %exitcond46.not, label %30, label %25, !llvm.loop !77

30:                                               ; preds = %25, %28
  %.030.lcssa = phi i32 [ %.03039, %25 ], [ 32, %28 ]
  %31 = getelementptr inbounds nuw i8, ptr %0, i64 16
  %32 = load ptr, ptr %31, align 8, !tbaa !50
  %33 = getelementptr i8, ptr %32, i64 136
  %.val32 = load i32, ptr %33, align 8, !tbaa !28
  %34 = add nsw i32 %.val32, 1
  %35 = sext i32 %34 to i64
  %36 = shl nsw i64 %35, 2
  %37 = tail call noalias ptr @malloc(i64 noundef %36) #21
  %38 = getelementptr inbounds nuw i8, ptr %0, i64 8
  %39 = load ptr, ptr %38, align 8, !tbaa !38
  %40 = getelementptr inbounds nuw i8, ptr %39, i64 16
  %41 = load ptr, ptr %40, align 8, !tbaa !45
  %42 = getelementptr i8, ptr %41, i64 4
  %.val3340 = load i32, ptr %42, align 4, !tbaa !46
  %43 = icmp sgt i32 %.val3340, 0
  br i1 %43, label %.lr.ph43, label %.critedge

.lr.ph43:                                         ; preds = %30
  %44 = getelementptr i8, ptr %41, i64 8
  %.val34 = load ptr, ptr %44, align 8, !tbaa !51
  %45 = lshr i32 %.030.lcssa, 5
  %46 = add nuw i32 %45, %.0.lcssa
  %47 = and i32 %46, 134217727
  %48 = zext nneg i32 %47 to i64
  %invariant.gep = getelementptr i32, ptr %11, i64 %48
  %49 = and i32 %.030.lcssa, 31
  %50 = zext nneg i32 %.val3340 to i64
  br label %51

51:                                               ; preds = %.lr.ph43, %51
  %indvars.iv47 = phi i64 [ 0, %.lr.ph43 ], [ %indvars.iv.next48, %51 ]
  %52 = getelementptr inbounds nuw ptr, ptr %.val34, i64 %indvars.iv47
  %53 = load ptr, ptr %52, align 8, !tbaa !65
  %54 = getelementptr inbounds nuw i8, ptr %53, i64 36
  %55 = load i32, ptr %54, align 4, !tbaa !22
  %56 = mul nsw i32 %13, %55
  %57 = sext i32 %56 to i64
  %gep = getelementptr i32, ptr %invariant.gep, i64 %57
  %58 = load i32, ptr %gep, align 4, !tbaa !28
  %59 = lshr i32 %58, %49
  %60 = and i32 %59, 1
  %61 = getelementptr inbounds nuw i32, ptr %37, i64 %indvars.iv47
  store i32 %60, ptr %61, align 4, !tbaa !28
  %indvars.iv.next48 = add nuw nsw i64 %indvars.iv47, 1
  %62 = icmp samesign ult i64 %indvars.iv.next48, %50
  br i1 %62, label %51, label %.critedge, !llvm.loop !78

.critedge:                                        ; preds = %51, %30
  %63 = getelementptr inbounds nuw i8, ptr %1, i64 36
  %64 = load i32, ptr %63, align 4, !tbaa !22
  %65 = getelementptr i8, ptr %39, i64 136
  %.val = load i32, ptr %65, align 8, !tbaa !28
  %66 = sext i32 %.val to i64
  %67 = getelementptr inbounds i32, ptr %37, i64 %66
  store i32 %64, ptr %67, align 4, !tbaa !28
  %68 = getelementptr inbounds nuw i8, ptr %32, i64 296
  store ptr %37, ptr %68, align 8, !tbaa !79
  ret void
}